target datalayout = "e-m:e-p270:32:32-p271:32:32-p272:64:64-i64:64-i128:128-f80:128-n8:16:32:64-S128"
target triple = "x86_64-pc-linux-gnu"

%union.YYSTYPE = type { %"struct.nix::StringToken" }
%"struct.nix::StringToken" = type { ptr, i64, i8 }
%"struct.nix::ParserLocation" = type { i32, i32, i32, i32, i32, i32, i32, i32 }
%struct.yyGLRStack = type { i32, [3 x %union.yyGLRStackItem], i32, i32, %union.YYSTYPE, %"struct.nix::ParserLocation", [1 x %struct.__jmp_buf_tag], ptr, ptr, i64, ptr, ptr, %struct.yyGLRStateSet }
%union.yyGLRStackItem = type { %struct.yySemanticOption }
%struct.yySemanticOption = type { i8, i32, ptr, i32, %union.YYSTYPE, %"struct.nix::ParserLocation", ptr }
%struct.__jmp_buf_tag = type { [8 x i64], i32, %struct.__sigset_t }
%struct.__sigset_t = type { [16 x i64] }
%struct.yyGLRStateSet = type { ptr, ptr, i64, i64 }
%struct.yyGLRState = type { i8, i8, i32, ptr, i64, %union.anon.38, %"struct.nix::ParserLocation" }
%union.anon.38 = type { %union.YYSTYPE }

; Function Attrs: mustprogress uwtable
define internal void @_ZL16yyexpandGLRStackP10yyGLRStack(ptr noundef %0) #5 {
  %2 = alloca ptr, align 8
  %3 = alloca ptr, align 8
  %4 = alloca ptr, align 8
  %5 = alloca ptr, align 8
  %6 = alloca i64, align 8
  %7 = alloca i64, align 8
  %8 = alloca i64, align 8
  %9 = alloca ptr, align 8
  %10 = alloca ptr, align 8
  %11 = alloca ptr, align 8
  %12 = alloca ptr, align 8
  store ptr %0, ptr %2, align 8
  %13 = load ptr, ptr %2, align 8
  %14 = getelementptr inbounds %struct.yyGLRStack, ptr %13, i32 0, i32 8
  %15 = load ptr, ptr %14, align 8
  %16 = load ptr, ptr %2, align 8
  %17 = getelementptr inbounds %struct.yyGLRStack, ptr %16, i32 0, i32 7
  %18 = load ptr, ptr %17, align 8
  %19 = ptrtoint ptr %15 to i64
  %20 = ptrtoint ptr %18 to i64
  %21 = sub i64 %19, %20
  %22 = sdiv exact i64 %21, 88
  store i64 %22, ptr %8, align 8
  %23 = load i64, ptr %8, align 8
  %24 = icmp slt i64 9998, %23
  br i1 %24, label %25, label %27

25:                                               ; preds = %1
  %26 = load ptr, ptr %2, align 8
  call void @_ZL17yyMemoryExhaustedP10yyGLRStack(ptr noundef %26) #24
  unreachable

27:                                               ; preds = %1
  %28 = load i64, ptr %8, align 8
  %29 = mul nsw i64 2, %28
  store i64 %29, ptr %6, align 8
  %30 = load i64, ptr %6, align 8
  %31 = icmp slt i64 10000, %30
  br i1 %31, label %32, label %33

32:                                               ; preds = %27
  store i64 10000, ptr %6, align 8
  br label %33

33:                                               ; preds = %32, %27
  %34 = load i64, ptr %6, align 8
  %35 = mul i64 %34, 88
  %36 = call noalias ptr @malloc(i64 noundef %35) #27
  store ptr %36, ptr %3, align 8
  %37 = load ptr, ptr %3, align 8
  %38 = icmp ne ptr %37, null
  br i1 %38, label %41, label %39

39:                                               ; preds = %33
  %40 = load ptr, ptr %2, align 8
  call void @_ZL17yyMemoryExhaustedP10yyGLRStack(ptr noundef %40) #24
  unreachable

41:                                               ; preds = %33
  %42 = load ptr, ptr %2, align 8
  %43 = getelementptr inbounds %struct.yyGLRStack, ptr %42, i32 0, i32 7
  %44 = load ptr, ptr %43, align 8
  store ptr %44, ptr %4, align 8
  %45 = load ptr, ptr %3, align 8
  store ptr %45, ptr %5, align 8
  %46 = load i64, ptr %8, align 8
  store i64 %46, ptr %7, align 8
  br label %47

47:                                               ; preds = %144, %41
  %48 = load i64, ptr %7, align 8
  %49 = icmp slt i64 0, %48
  br i1 %49, label %50, label %151

50:                                               ; preds = %47
  %51 = load ptr, ptr %4, align 8
  %52 = load ptr, ptr %5, align 8
  call void @llvm.memcpy.p0.p0.i64(ptr align 8 %52, ptr align 8 %51, i64 88, i1 false)
  %53 = load ptr, ptr %4, align 8
  %54 = load i8, ptr %53, align 1
  %55 = trunc i8 %54 to i1
  br i1 %55, label %56, label %102

56:                                               ; preds = %50
  %57 = load ptr, ptr %4, align 8
  store ptr %57, ptr %9, align 8
  %58 = load ptr, ptr %5, align 8
  store ptr %58, ptr %10, align 8
  %59 = load ptr, ptr %9, align 8
  %60 = getelementptr inbounds %struct.yyGLRState, ptr %59, i32 0, i32 3
  %61 = load ptr, ptr %60, align 8
  %62 = icmp ne ptr %61, null
  br i1 %62, label %63, label %77

63:                                               ; preds = %56
  %64 = load ptr, ptr %5, align 8
  %65 = load ptr, ptr %4, align 8
  %66 = load ptr, ptr %9, align 8
  %67 = getelementptr inbounds %struct.yyGLRState, ptr %66, i32 0, i32 3
  %68 = load ptr, ptr %67, align 8
  %69 = ptrtoint ptr %65 to i64
  %70 = ptrtoint ptr %68 to i64
  %71 = sub i64 %69, %70
  %72 = sdiv exact i64 %71, 88
  %73 = sub i64 0, %72
  %74 = getelementptr inbounds %union.yyGLRStackItem, ptr %64, i64 %73
  %75 = load ptr, ptr %10, align 8
  %76 = getelementptr inbounds %struct.yyGLRState, ptr %75, i32 0, i32 3
  store ptr %74, ptr %76, align 8
  br label %77

77:                                               ; preds = %63, %56
  %78 = load ptr, ptr %9, align 8
  %79 = getelementptr inbounds %struct.yyGLRState, ptr %78, i32 0, i32 1
  %80 = load i8, ptr %79, align 1
  %81 = trunc i8 %80 to i1
  br i1 %81, label %101, label %82

82:                                               ; preds = %77
  %83 = load ptr, ptr %9, align 8
  %84 = getelementptr inbounds %struct.yyGLRState, ptr %83, i32 0, i32 5
  %85 = load ptr, ptr %84, align 8
  %86 = icmp ne ptr %85, null
  br i1 %86, label %87, label %101

87:                                               ; preds = %82
  %88 = load ptr, ptr %5, align 8
  %89 = load ptr, ptr %4, align 8
  %90 = load ptr, ptr %9, align 8
  %91 = getelementptr inbounds %struct.yyGLRState, ptr %90, i32 0, i32 5
  %92 = load ptr, ptr %91, align 8
  %93 = ptrtoint ptr %89 to i64
  %94 = ptrtoint ptr %92 to i64
  %95 = sub i64 %93, %94
  %96 = sdiv exact i64 %95, 88
  %97 = sub i64 0, %96
  %98 = getelementptr inbounds %union.yyGLRStackItem, ptr %88, i64 %97
  %99 = load ptr, ptr %10, align 8
  %100 = getelementptr inbounds %struct.yyGLRState, ptr %99, i32 0, i32 5
  store ptr %98, ptr %100, align 8
  br label %101

101:                                              ; preds = %87, %82, %77
  br label %143

102:                                              ; preds = %50
  %103 = load ptr, ptr %4, align 8
  store ptr %103, ptr %11, align 8
  %104 = load ptr, ptr %5, align 8
  store ptr %104, ptr %12, align 8
  %105 = load ptr, ptr %11, align 8
  %106 = getelementptr inbounds %struct.yySemanticOption, ptr %105, i32 0, i32 2
  %107 = load ptr, ptr %106, align 8
  %108 = icmp ne ptr %107, null
  br i1 %108, label %109, label %123

109:                                              ; preds = %102
  %110 = load ptr, ptr %5, align 8
  %111 = load ptr, ptr %4, align 8
  %112 = load ptr, ptr %11, align 8
  %113 = getelementptr inbounds %struct.yySemanticOption, ptr %112, i32 0, i32 2
  %114 = load ptr, ptr %113, align 8
  %115 = ptrtoint ptr %111 to i64
  %116 = ptrtoint ptr %114 to i64
  %117 = sub i64 %115, %116
  %118 = sdiv exact i64 %117, 88
  %119 = sub i64 0, %118
  %120 = getelementptr inbounds %union.yyGLRStackItem, ptr %110, i64 %119
  %121 = load ptr, ptr %12, align 8
  %122 = getelementptr inbounds %struct.yySemanticOption, ptr %121, i32 0, i32 2
  store ptr %120, ptr %122, align 8
  br label %123

123:                                              ; preds = %109, %102
  %124 = load ptr, ptr %11, align 8
  %125 = getelementptr inbounds %struct.yySemanticOption, ptr %124, i32 0, i32 6
  %126 = load ptr, ptr %125, align 8
  %127 = icmp ne ptr %126, null
  br i1 %127, label %128, label %142

128:                                              ; preds = %123
  %129 = load ptr, ptr %5, align 8
  %130 = load ptr, ptr %4, align 8
  %131 = load ptr, ptr %11, align 8
  %132 = getelementptr inbounds %struct.yySemanticOption, ptr %131, i32 0, i32 6
  %133 = load ptr, ptr %132, align 8
  %134 = ptrtoint ptr %130 to i64
  %135 = ptrtoint ptr %133 to i64
  %136 = sub i64 %134, %135
  %137 = sdiv exact i64 %136, 88
  %138 = sub i64 0, %137
  %139 = getelementptr inbounds %union.yyGLRStackItem, ptr %129, i64 %138
  %140 = load ptr, ptr %12, align 8
  %141 = getelementptr inbounds %struct.yySemanticOption, ptr %140, i32 0, i32 6
  store ptr %139, ptr %141, align 8
  br label %142

142:                                              ; preds = %128, %123
  br label %143

143:                                              ; preds = %142, %101
  br label %144

144:                                              ; preds = %143
  %145 = load i64, ptr %7, align 8
  %146 = sub nsw i64 %145, 1
  store i64 %146, ptr %7, align 8
  %147 = load ptr, ptr %4, align 8
  %148 = getelementptr inbounds %union.yyGLRStackItem, ptr %147, i64 1
  store ptr %148, ptr %4, align 8
  %149 = load ptr, ptr %5, align 8
  %150 = getelementptr inbounds %union.yyGLRStackItem, ptr %149, i64 1
  store ptr %150, ptr %5, align 8
  br label %47, !llvm.loop !59

151:                                              ; preds = %47
  %152 = load ptr, ptr %2, align 8
  %153 = getelementptr inbounds %struct.yyGLRStack, ptr %152, i32 0, i32 10
  %154 = load ptr, ptr %153, align 8
  %155 = icmp ne ptr %154, null
  br i1 %155, label %156, label %172

156:                                              ; preds = %151
  %157 = load ptr, ptr %3, align 8
  %158 = load ptr, ptr %2, align 8
  %159 = getelementptr inbounds %struct.yyGLRStack, ptr %158, i32 0, i32 7
  %160 = load ptr, ptr %159, align 8
  %161 = load ptr, ptr %2, align 8
  %162 = getelementptr inbounds %struct.yyGLRStack, ptr %161, i32 0, i32 10
  %163 = load ptr, ptr %162, align 8
  %164 = ptrtoint ptr %160 to i64
  %165 = ptrtoint ptr %163 to i64
  %166 = sub i64 %164, %165
  %167 = sdiv exact i64 %166, 88
  %168 = sub i64 0, %167
  %169 = getelementptr inbounds %union.yyGLRStackItem, ptr %157, i64 %168
  %170 = load ptr, ptr %2, align 8
  %171 = getelementptr inbounds %struct.yyGLRStack, ptr %170, i32 0, i32 10
  store ptr %169, ptr %171, align 8
  br label %172

172:                                              ; preds = %156, %151
  store i64 0, ptr %7, align 8
  br label %173

173:                                              ; preds = %214, %172
  %174 = load i64, ptr %7, align 8
  %175 = load ptr, ptr %2, align 8
  %176 = getelementptr inbounds %struct.yyGLRStack, ptr %175, i32 0, i32 12
  %177 = getelementptr inbounds %struct.yyGLRStateSet, ptr %176, i32 0, i32 2
  %178 = load i64, ptr %177, align 8
  %179 = icmp slt i64 %174, %178
  br i1 %179, label %180, label %217

180:                                              ; preds = %173
  %181 = load ptr, ptr %2, align 8
  %182 = getelementptr inbounds %struct.yyGLRStack, ptr %181, i32 0, i32 12
  %183 = getelementptr inbounds %struct.yyGLRStateSet, ptr %182, i32 0, i32 0
  %184 = load ptr, ptr %183, align 8
  %185 = load i64, ptr %7, align 8
  %186 = getelementptr inbounds ptr, ptr %184, i64 %185
  %187 = load ptr, ptr %186, align 8
  %188 = icmp ne ptr %187, null
  br i1 %188, label %189, label %213

189:                                              ; preds = %180
  %190 = load ptr, ptr %3, align 8
  %191 = load ptr, ptr %2, align 8
  %192 = getelementptr inbounds %struct.yyGLRStack, ptr %191, i32 0, i32 7
  %193 = load ptr, ptr %192, align 8
  %194 = load ptr, ptr %2, align 8
  %195 = getelementptr inbounds %struct.yyGLRStack, ptr %194, i32 0, i32 12
  %196 = getelementptr inbounds %struct.yyGLRStateSet, ptr %195, i32 0, i32 0
  %197 = load ptr, ptr %196, align 8
  %198 = load i64, ptr %7, align 8
  %199 = getelementptr inbounds ptr, ptr %197, i64 %198
  %200 = load ptr, ptr %199, align 8
  %201 = ptrtoint ptr %193 to i64
  %202 = ptrtoint ptr %200 to i64
  %203 = sub i64 %201, %202
  %204 = sdiv exact i64 %203, 88
  %205 = sub i64 0, %204
  %206 = getelementptr inbounds %union.yyGLRStackItem, ptr %190, i64 %205
  %207 = load ptr, ptr %2, align 8
  %208 = getelementptr inbounds %struct.yyGLRStack, ptr %207, i32 0, i32 12
  %209 = getelementptr inbounds %struct.yyGLRStateSet, ptr %208, i32 0, i32 0
  %210 = load ptr, ptr %209, align 8
  %211 = load i64, ptr %7, align 8
  %212 = getelementptr inbounds ptr, ptr %210, i64 %211
  store ptr %206, ptr %212, align 8
  br label %213

213:                                              ; preds = %189, %180
  br label %214

214:                                              ; preds = %213
  %215 = load i64, ptr %7, align 8
  %216 = add nsw i64 %215, 1
  store i64 %216, ptr %7, align 8
  br label %173, !llvm.loop !60

217:                                              ; preds = %173
  %218 = load ptr, ptr %2, align 8
  %219 = getelementptr inbounds %struct.yyGLRStack, ptr %218, i32 0, i32 7
  %220 = load ptr, ptr %219, align 8
  call void @free(ptr noundef %220) #1
  %221 = load ptr, ptr %3, align 8
  %222 = load ptr, ptr %2, align 8
  %223 = getelementptr inbounds %struct.yyGLRStack, ptr %222, i32 0, i32 7
  store ptr %221, ptr %223, align 8
  %224 = load ptr, ptr %3, align 8
  %225 = load i64, ptr %8, align 8
  %226 = getelementptr inbounds %union.yyGLRStackItem, ptr %224, i64 %225
  %227 = load ptr, ptr %2, align 8
  %228 = getelementptr inbounds %struct.yyGLRStack, ptr %227, i32 0, i32 8
  store ptr %226, ptr %228, align 8
  %229 = load i64, ptr %6, align 8
  %230 = load i64, ptr %8, align 8
  %231 = sub nsw i64 %229, %230
  %232 = load ptr, ptr %2, align 8
  %233 = getelementptr inbounds %struct.yyGLRStack, ptr %232, i32 0, i32 9
  store i64 %231, ptr %233, align 8
  ret void
}