; Function Attrs: mustprogress nounwind uwtable
define internal fastcc void @_ZL16yyexpandGLRStackP10yyGLRStack(ptr noundef %0) unnamed_addr #7 {
  %2 = getelementptr inbounds i8, ptr %0, i64 544
  %3 = load ptr, ptr %2, align 8
  %4 = getelementptr inbounds i8, ptr %0, i64 536
  %5 = load ptr, ptr %4, align 8
  %6 = ptrtoint ptr %3 to i64
  %7 = ptrtoint ptr %5 to i64
  %8 = sub i64 %6, %7
  %9 = sdiv exact i64 %8, 88
  %10 = icmp sgt i64 %8, 879824
  br i1 %10, label %11, label %12

11:                                               ; preds = %1
  tail call fastcc void @_ZL17yyMemoryExhaustedP10yyGLRStack(ptr noundef nonnull %0) #36
  unreachable

12:                                               ; preds = %1
  %13 = shl nsw i64 %9, 1
  %spec.store.select = tail call i64 @llvm.smin.i64(i64 %13, i64 10000)
  %14 = mul i64 %spec.store.select, 88
  %15 = tail call noalias ptr @malloc(i64 noundef %14) #40
  %.not = icmp eq ptr %15, null
  br i1 %.not, label %17, label %.preheader

.preheader:                                       ; preds = %12
  %16 = icmp sgt i64 %8, 0
  br i1 %16, label %.lr.ph, label %._crit_edge

17:                                               ; preds = %12
  tail call fastcc void @_ZL17yyMemoryExhaustedP10yyGLRStack(ptr noundef nonnull %0) #36
  unreachable

.lr.ph:                                           ; preds = %.preheader, %51
  %.093 = phi ptr [ %53, %51 ], [ %5, %.preheader ]
  %.06892 = phi ptr [ %54, %51 ], [ %15, %.preheader ]
  %.06991 = phi i64 [ %52, %51 ], [ %9, %.preheader ]
  tail call void @llvm.memcpy.p0.p0.i64(ptr noundef nonnull align 8 dereferenceable(88) %.06892, ptr noundef nonnull align 8 dereferenceable(88) %.093, i64 88, i1 false)
  %18 = load i8, ptr %.093, align 1
  %19 = and i8 %18, 1
  %.not81 = icmp eq i8 %19, 0
  %20 = getelementptr inbounds i8, ptr %.093, i64 8
  %21 = load ptr, ptr %20, align 8
  %.not82 = icmp eq ptr %21, null
  br i1 %.not81, label %36, label %22

22:                                               ; preds = %.lr.ph
  br i1 %.not82, label %29, label %23

23:                                               ; preds = %22
  %24 = ptrtoint ptr %.093 to i64
  %25 = ptrtoint ptr %21 to i64
  %26 = sub i64 %24, %25
  %.neg87 = sdiv exact i64 %26, -88
  %27 = getelementptr inbounds %union.yyGLRStackItem, ptr %.06892, i64 %.neg87
  %28 = getelementptr inbounds i8, ptr %.06892, i64 8
  store ptr %27, ptr %28, align 8
  br label %29

29:                                               ; preds = %23, %22
  %30 = getelementptr inbounds i8, ptr %.093, i64 1
  %31 = load i8, ptr %30, align 1
  %32 = and i8 %31, 1
  %.not88 = icmp eq i8 %32, 0
  br i1 %.not88, label %33, label %51

33:                                               ; preds = %29
  %34 = getelementptr inbounds i8, ptr %.093, i64 24
  %35 = load ptr, ptr %34, align 8
  %.not89 = icmp eq ptr %35, null
  br i1 %.not89, label %51, label %.sink.split

36:                                               ; preds = %.lr.ph
  br i1 %.not82, label %43, label %37

37:                                               ; preds = %36
  %38 = ptrtoint ptr %.093 to i64
  %39 = ptrtoint ptr %21 to i64
  %40 = sub i64 %38, %39
  %.neg83 = sdiv exact i64 %40, -88
  %41 = getelementptr inbounds %union.yyGLRStackItem, ptr %.06892, i64 %.neg83
  %42 = getelementptr inbounds i8, ptr %.06892, i64 8
  store ptr %41, ptr %42, align 8
  br label %43

43:                                               ; preds = %37, %36
  %44 = getelementptr inbounds i8, ptr %.093, i64 80
  %45 = load ptr, ptr %44, align 8
  %.not84 = icmp eq ptr %45, null
  br i1 %.not84, label %51, label %.sink.split

.sink.split:                                      ; preds = %43, %33
  %.sink = phi ptr [ %35, %33 ], [ %45, %43 ]
  %.sink100 = phi i64 [ 24, %33 ], [ 80, %43 ]
  %46 = ptrtoint ptr %.093 to i64
  %47 = ptrtoint ptr %.sink to i64
  %48 = sub i64 %46, %47
  %.neg90 = sdiv exact i64 %48, -88
  %49 = getelementptr inbounds %union.yyGLRStackItem, ptr %.06892, i64 %.neg90
  %50 = getelementptr inbounds i8, ptr %.06892, i64 %.sink100
  store ptr %49, ptr %50, align 8
  br label %51

51:                                               ; preds = %.sink.split, %33, %29, %43
  %52 = add nsw i64 %.06991, -1
  %53 = getelementptr inbounds i8, ptr %.093, i64 88
  %54 = getelementptr inbounds i8, ptr %.06892, i64 88
  %55 = icmp sgt i64 %.06991, 1
  br i1 %55, label %.lr.ph, label %._crit_edge, !llvm.loop !77

._crit_edge:                                      ; preds = %51, %.preheader
  %56 = getelementptr inbounds i8, ptr %0, i64 560
  %57 = load ptr, ptr %56, align 8
  %.not78 = icmp eq ptr %57, null
  br i1 %.not78, label %62, label %58

58:                                               ; preds = %._crit_edge
  %59 = ptrtoint ptr %57 to i64
  %60 = sub i64 %7, %59
  %.neg = sdiv exact i64 %60, -88
  %61 = getelementptr inbounds %union.yyGLRStackItem, ptr %15, i64 %.neg
  store ptr %61, ptr %56, align 8
  br label %62

62:                                               ; preds = %58, %._crit_edge
  %63 = getelementptr inbounds i8, ptr %0, i64 592
  %64 = load i64, ptr %63, align 8
  %65 = icmp sgt i64 %64, 0
  br i1 %65, label %.lr.ph96, label %._crit_edge97

.lr.ph96:                                         ; preds = %62
  %66 = getelementptr inbounds i8, ptr %0, i64 576
  br label %67

67:                                               ; preds = %.lr.ph96, %78
  %68 = phi i64 [ %64, %.lr.ph96 ], [ %79, %78 ]
  %.194 = phi i64 [ 0, %.lr.ph96 ], [ %80, %78 ]
  %69 = load ptr, ptr %66, align 8
  %70 = getelementptr inbounds ptr, ptr %69, i64 %.194
  %71 = load ptr, ptr %70, align 8
  %.not79 = icmp eq ptr %71, null
  br i1 %.not79, label %78, label %72

72:                                               ; preds = %67
  %73 = load ptr, ptr %4, align 8
  %74 = ptrtoint ptr %73 to i64
  %75 = ptrtoint ptr %71 to i64
  %76 = sub i64 %74, %75
  %.neg80 = sdiv exact i64 %76, -88
  %77 = getelementptr inbounds %union.yyGLRStackItem, ptr %15, i64 %.neg80
  store ptr %77, ptr %70, align 8
  %.pre = load i64, ptr %63, align 8
  br label %78

78:                                               ; preds = %67, %72
  %79 = phi i64 [ %68, %67 ], [ %.pre, %72 ]
  %80 = add nuw nsw i64 %.194, 1
  %81 = icmp slt i64 %80, %79
  br i1 %81, label %67, label %._crit_edge97.loopexit, !llvm.loop !78

._crit_edge97.loopexit:                           ; preds = %78
  %.pre98 = load ptr, ptr %4, align 8
  br label %._crit_edge97

._crit_edge97:                                    ; preds = %._crit_edge97.loopexit, %62
  %82 = phi ptr [ %.pre98, %._crit_edge97.loopexit ], [ %5, %62 ]
  tail call void @free(ptr noundef %82) #35
  store ptr %15, ptr %4, align 8
  %83 = getelementptr inbounds i8, ptr %15, i64 %8
  store ptr %83, ptr %2, align 8
  %84 = sub nsw i64 %spec.store.select, %9
  %85 = getelementptr inbounds i8, ptr %0, i64 552
  store i64 %84, ptr %85, align 8
  ret void
}